target datalayout = "e-m:e-p270:32:32-p271:32:32-p272:64:64-i64:64-i128:128-f80:128-n8:16:32:64-S128"
target triple = "x86_64-pc-linux-gnu"

%struct.ossl_cmp_itav_st = type { ptr, %union.anon }
%union.anon = type { ptr }
%struct.ossl_cmp_certreqtemplate_st = type { ptr, ptr }
%struct.ossl_crmf_attributetypeandvalue_st = type { ptr, %union.anon.0 }
%union.anon.0 = type { ptr }

@.str.12 = private unnamed_addr constant [32 x i8] c"../openssl/crypto/cmp/cmp_asn.c\00", align 1
@__func__.OSSL_CMP_ITAV_get1_certReqTemplate = private unnamed_addr constant [35 x i8] c"OSSL_CMP_ITAV_get1_certReqTemplate\00", align 1
@.str.13 = private unnamed_addr constant [56 x i8] c"keySpec with index %d in certReqTemplate does not exist\00", align 1
@.str.14 = private unnamed_addr constant [8 x i8] c"<undef>\00", align 1
@.str.15 = private unnamed_addr constant [61 x i8] c"keySpec with index %d in certReqTemplate has invalid type %s\00", align 1

; Function Attrs: inlinehint nounwind uwtable
define internal ptr @ossl_check_OSSL_CRMF_ATTRIBUTETYPEANDVALUE_freefunc_type(ptr noundef %0) #3 {
  %2 = alloca ptr, align 8
  store ptr %0, ptr %2, align 8, !tbaa !69
  %3 = load ptr, ptr %2, align 8, !tbaa !69
  ret ptr %3
}

; Function Attrs: inlinehint nounwind uwtable
define internal ptr @ossl_check_OSSL_CRMF_ATTRIBUTETYPEANDVALUE_sk_type(ptr noundef %0) #3 {
  %2 = alloca ptr, align 8
  store ptr %0, ptr %2, align 8, !tbaa !36
  %3 = load ptr, ptr %2, align 8, !tbaa !36
  ret ptr %3
}

; Function Attrs: nounwind uwtable
define ptr @OSSL_CMP_ATAV_get0_type(ptr noundef %0) #0 {
  %2 = alloca ptr, align 8
  %3 = alloca ptr, align 8
  store ptr %0, ptr %3, align 8, !tbaa !87
  %4 = load ptr, ptr %3, align 8, !tbaa !87
  %5 = icmp eq ptr %4, null
  br i1 %5, label %6, label %7

6:                                                ; preds = %1
  store ptr null, ptr %2, align 8
  br label %11

7:                                                ; preds = %1
  %8 = load ptr, ptr %3, align 8, !tbaa !87
  %9 = getelementptr inbounds nuw %struct.ossl_crmf_attributetypeandvalue_st, ptr %8, i32 0, i32 0
  %10 = load ptr, ptr %9, align 8, !tbaa !93
  store ptr %10, ptr %2, align 8
  br label %11

11:                                               ; preds = %7, %6
  %12 = load ptr, ptr %2, align 8
  ret ptr %12
}

; Function Attrs: inlinehint nounwind uwtable
define internal ptr @ossl_check_OSSL_CRMF_ATTRIBUTETYPEANDVALUE_compfunc_type(ptr noundef %0) #3 {
  %2 = alloca ptr, align 8
  store ptr %0, ptr %2, align 8, !tbaa !69
  %3 = load ptr, ptr %2, align 8, !tbaa !69
  ret ptr %3
}

; Function Attrs: inlinehint nounwind uwtable
define internal ptr @ossl_check_const_OSSL_CRMF_ATTRIBUTETYPEANDVALUE_sk_type(ptr noundef %0) #3 {
  %2 = alloca ptr, align 8
  store ptr %0, ptr %2, align 8, !tbaa !36
  %3 = load ptr, ptr %2, align 8, !tbaa !36
  ret ptr %3
}

; Function Attrs: nounwind uwtable
define i32 @OSSL_CMP_ITAV_get1_certReqTemplate(ptr noundef %0, ptr noundef %1, ptr noundef %2) #0 {
  %4 = alloca i32, align 4
  %5 = alloca ptr, align 8
  %6 = alloca ptr, align 8
  %7 = alloca ptr, align 8
  %8 = alloca ptr, align 8
  %9 = alloca i32, align 4
  %10 = alloca i32, align 4
  %11 = alloca i32, align 4
  %12 = alloca ptr, align 8
  %13 = alloca ptr, align 8
  %14 = alloca i32, align 4
  %15 = alloca ptr, align 8
  store ptr %0, ptr %5, align 8, !tbaa !28
  store ptr %1, ptr %6, align 8, !tbaa !85
  store ptr %2, ptr %7, align 8, !tbaa !34
  call void @llvm.lifetime.start.p0(i64 8, ptr %8) #4
  %16 = load ptr, ptr %5, align 8, !tbaa !28
  %17 = icmp eq ptr %16, null
  br i1 %17, label %21, label %18

18:                                               ; preds = %3
  %19 = load ptr, ptr %6, align 8, !tbaa !85
  %20 = icmp eq ptr %19, null
  br i1 %20, label %21, label %22

21:                                               ; preds = %18, %3
  call void @ERR_new()
  call void @ERR_set_debug(ptr noundef @.str.12, i32 noundef 412, ptr noundef @__func__.OSSL_CMP_ITAV_get1_certReqTemplate)
  call void (i32, i32, ptr, ...) @ERR_set_error(i32 noundef 58, i32 noundef 103, ptr noundef null)
  store i32 0, ptr %4, align 4
  store i32 1, ptr %9, align 4
  br label %141

22:                                               ; preds = %18
  %23 = load ptr, ptr %6, align 8, !tbaa !85
  store ptr null, ptr %23, align 8, !tbaa !80
  %24 = load ptr, ptr %7, align 8, !tbaa !34
  %25 = icmp ne ptr %24, null
  br i1 %25, label %26, label %28

26:                                               ; preds = %22
  %27 = load ptr, ptr %7, align 8, !tbaa !34
  store ptr null, ptr %27, align 8, !tbaa !36
  br label %28

28:                                               ; preds = %26, %22
  %29 = load ptr, ptr %5, align 8, !tbaa !28
  %30 = getelementptr inbounds nuw %struct.ossl_cmp_itav_st, ptr %29, i32 0, i32 0
  %31 = load ptr, ptr %30, align 8, !tbaa !54
  %32 = call i32 @OBJ_obj2nid(ptr noundef %31)
  %33 = icmp ne i32 %32, 1225
  br i1 %33, label %34, label %35

34:                                               ; preds = %28
  call void @ERR_new()
  call void @ERR_set_debug(ptr noundef @.str.12, i32 noundef 421, ptr noundef @__func__.OSSL_CMP_ITAV_get1_certReqTemplate)
  call void (i32, i32, ptr, ...) @ERR_set_error(i32 noundef 58, i32 noundef 524550, ptr noundef null)
  store i32 0, ptr %4, align 4
  store i32 1, ptr %9, align 4
  br label %141

35:                                               ; preds = %28
  %36 = load ptr, ptr %5, align 8, !tbaa !28
  %37 = getelementptr inbounds nuw %struct.ossl_cmp_itav_st, ptr %36, i32 0, i32 1
  %38 = load ptr, ptr %37, align 8, !tbaa !56
  store ptr %38, ptr %8, align 8, !tbaa !40
  %39 = load ptr, ptr %8, align 8, !tbaa !40
  %40 = icmp eq ptr %39, null
  br i1 %40, label %41, label %42

41:                                               ; preds = %35
  store i32 1, ptr %4, align 4
  store i32 1, ptr %9, align 4
  br label %141

42:                                               ; preds = %35
  %43 = load ptr, ptr %8, align 8, !tbaa !40
  %44 = getelementptr inbounds nuw %struct.ossl_cmp_certreqtemplate_st, ptr %43, i32 0, i32 0
  %45 = load ptr, ptr %44, align 8, !tbaa !82
  %46 = call ptr @OSSL_CRMF_CERTTEMPLATE_dup(ptr noundef %45)
  %47 = load ptr, ptr %6, align 8, !tbaa !85
  store ptr %46, ptr %47, align 8, !tbaa !80
  %48 = icmp eq ptr %46, null
  br i1 %48, label %49, label %50

49:                                               ; preds = %42
  store i32 0, ptr %4, align 4
  store i32 1, ptr %9, align 4
  br label %141

50:                                               ; preds = %42
  %51 = load ptr, ptr %7, align 8, !tbaa !34
  %52 = icmp ne ptr %51, null
  br i1 %52, label %53, label %127

53:                                               ; preds = %50
  %54 = load ptr, ptr %8, align 8, !tbaa !40
  %55 = getelementptr inbounds nuw %struct.ossl_cmp_certreqtemplate_st, ptr %54, i32 0, i32 1
  %56 = load ptr, ptr %55, align 8, !tbaa !84
  %57 = icmp ne ptr %56, null
  br i1 %57, label %58, label %127

58:                                               ; preds = %53
  call void @llvm.lifetime.start.p0(i64 4, ptr %10) #4
  call void @llvm.lifetime.start.p0(i64 4, ptr %11) #4
  %59 = load ptr, ptr %8, align 8, !tbaa !40
  %60 = getelementptr inbounds nuw %struct.ossl_cmp_certreqtemplate_st, ptr %59, i32 0, i32 1
  %61 = load ptr, ptr %60, align 8, !tbaa !84
  %62 = call ptr @ossl_check_const_OSSL_CRMF_ATTRIBUTETYPEANDVALUE_sk_type(ptr noundef %61)
  %63 = call i32 @OPENSSL_sk_num(ptr noundef %62)
  store i32 %63, ptr %11, align 4, !tbaa !59
  %64 = call ptr @ossl_check_OSSL_CRMF_ATTRIBUTETYPEANDVALUE_compfunc_type(ptr noundef null)
  %65 = load i32, ptr %11, align 4, !tbaa !59
  %66 = call ptr @OPENSSL_sk_new_reserve(ptr noundef %64, i32 noundef %65)
  %67 = load ptr, ptr %7, align 8, !tbaa !34
  store ptr %66, ptr %67, align 8, !tbaa !36
  %68 = load ptr, ptr %7, align 8, !tbaa !34
  %69 = load ptr, ptr %68, align 8, !tbaa !36
  %70 = icmp eq ptr %69, null
  br i1 %70, label %71, label %72

71:                                               ; preds = %58
  store i32 2, ptr %9, align 4
  br label %124

72:                                               ; preds = %58
  store i32 0, ptr %10, align 4, !tbaa !59
  br label %73

73:                                               ; preds = %120, %72
  %74 = load i32, ptr %10, align 4, !tbaa !59
  %75 = load i32, ptr %11, align 4, !tbaa !59
  %76 = icmp slt i32 %74, %75
  br i1 %76, label %77, label %123

77:                                               ; preds = %73
  call void @llvm.lifetime.start.p0(i64 8, ptr %12) #4
  %78 = load ptr, ptr %8, align 8, !tbaa !40
  %79 = getelementptr inbounds nuw %struct.ossl_cmp_certreqtemplate_st, ptr %78, i32 0, i32 1
  %80 = load ptr, ptr %79, align 8, !tbaa !84
  %81 = call ptr @ossl_check_const_OSSL_CRMF_ATTRIBUTETYPEANDVALUE_sk_type(ptr noundef %80)
  %82 = load i32, ptr %10, align 4, !tbaa !59
  %83 = call ptr @OPENSSL_sk_value(ptr noundef %81, i32 noundef %82)
  store ptr %83, ptr %12, align 8, !tbaa !87
  call void @llvm.lifetime.start.p0(i64 8, ptr %13) #4
  %84 = load ptr, ptr %12, align 8, !tbaa !87
  %85 = call ptr @OSSL_CMP_ATAV_get0_type(ptr noundef %84)
  store ptr %85, ptr %13, align 8, !tbaa !50
  call void @llvm.lifetime.start.p0(i64 4, ptr %14) #4
  call void @llvm.lifetime.start.p0(i64 8, ptr %15) #4
  %86 = load ptr, ptr %13, align 8, !tbaa !50
  %87 = icmp eq ptr %86, null
  br i1 %87, label %88, label %90

88:                                               ; preds = %77
  call void @ERR_new()
  call void @ERR_set_debug(ptr noundef @.str.12, i32 noundef 443, ptr noundef @__func__.OSSL_CMP_ITAV_get1_certReqTemplate)
  %89 = load i32, ptr %10, align 4, !tbaa !59
  call void (i32, i32, ptr, ...) @ERR_set_error(i32 noundef 58, i32 noundef 202, ptr noundef @.str.13, i32 noundef %89)
  store i32 2, ptr %9, align 4
  br label %117

90:                                               ; preds = %77
  %91 = load ptr, ptr %13, align 8, !tbaa !50
  %92 = call i32 @OBJ_obj2nid(ptr noundef %91)
  store i32 %92, ptr %14, align 4, !tbaa !59
  %93 = load i32, ptr %14, align 4, !tbaa !59
  %94 = icmp ne i32 %93, 1259
  br i1 %94, label %95, label %113

95:                                               ; preds = %90
  %96 = load i32, ptr %14, align 4, !tbaa !59
  %97 = icmp ne i32 %96, 1260
  br i1 %97, label %98, label %113

98:                                               ; preds = %95
  %99 = load i32, ptr %14, align 4, !tbaa !59
  %100 = call ptr @OBJ_nid2ln(i32 noundef %99)
  store ptr %100, ptr %15, align 8, !tbaa !89
  %101 = load ptr, ptr %15, align 8, !tbaa !89
  %102 = icmp eq ptr %101, null
  br i1 %102, label %103, label %106

103:                                              ; preds = %98
  %104 = load i32, ptr %14, align 4, !tbaa !59
  %105 = call ptr @OBJ_nid2sn(i32 noundef %104)
  store ptr %105, ptr %15, align 8, !tbaa !89
  br label %106

106:                                              ; preds = %103, %98
  %107 = load ptr, ptr %15, align 8, !tbaa !89
  %108 = icmp eq ptr %107, null
  br i1 %108, label %109, label %110

109:                                              ; preds = %106
  store ptr @.str.14, ptr %15, align 8, !tbaa !89
  br label %110

110:                                              ; preds = %109, %106
  call void @ERR_new()
  call void @ERR_set_debug(ptr noundef @.str.12, i32 noundef 457, ptr noundef @__func__.OSSL_CMP_ITAV_get1_certReqTemplate)
  %111 = load i32, ptr %10, align 4, !tbaa !59
  %112 = load ptr, ptr %15, align 8, !tbaa !89
  call void (i32, i32, ptr, ...) @ERR_set_error(i32 noundef 58, i32 noundef 202, ptr noundef @.str.15, i32 noundef %111, ptr noundef %112)
  store i32 2, ptr %9, align 4
  br label %117

113:                                              ; preds = %95, %90
  %114 = load ptr, ptr %7, align 8, !tbaa !34
  %115 = load ptr, ptr %12, align 8, !tbaa !87
  %116 = call i32 @OSSL_CMP_ATAV_push1(ptr noundef %114, ptr noundef %115)
  store i32 0, ptr %9, align 4
  br label %117

117:                                              ; preds = %110, %88, %113
  call void @llvm.lifetime.end.p0(i64 8, ptr %15) #4
  call void @llvm.lifetime.end.p0(i64 4, ptr %14) #4
  call void @llvm.lifetime.end.p0(i64 8, ptr %13) #4
  call void @llvm.lifetime.end.p0(i64 8, ptr %12) #4
  %118 = load i32, ptr %9, align 4
  switch i32 %118, label %124 [
    i32 0, label %119
  ]

119:                                              ; preds = %117
  br label %120

120:                                              ; preds = %119
  %121 = load i32, ptr %10, align 4, !tbaa !59
  %122 = add nsw i32 %121, 1
  store i32 %122, ptr %10, align 4, !tbaa !59
  br label %73, !llvm.loop !91

123:                                              ; preds = %73
  store i32 0, ptr %9, align 4
  br label %124

124:                                              ; preds = %71, %123, %117
  call void @llvm.lifetime.end.p0(i64 4, ptr %11) #4
  call void @llvm.lifetime.end.p0(i64 4, ptr %10) #4
  %125 = load i32, ptr %9, align 4
  switch i32 %125, label %141 [
    i32 0, label %126
    i32 2, label %128
  ]

126:                                              ; preds = %124
  br label %127

127:                                              ; preds = %126, %53, %50
  store i32 1, ptr %4, align 4
  store i32 1, ptr %9, align 4
  br label %141

128:                                              ; preds = %124
  %129 = load ptr, ptr %6, align 8, !tbaa !85
  %130 = load ptr, ptr %129, align 8, !tbaa !80
  call void @OSSL_CRMF_CERTTEMPLATE_free(ptr noundef %130)
  %131 = load ptr, ptr %6, align 8, !tbaa !85
  store ptr null, ptr %131, align 8, !tbaa !80
  %132 = load ptr, ptr %7, align 8, !tbaa !34
  %133 = load ptr, ptr %132, align 8, !tbaa !36
  %134 = call ptr @ossl_check_OSSL_CRMF_ATTRIBUTETYPEANDVALUE_sk_type(ptr noundef %133)
  %135 = call ptr @ossl_check_OSSL_CRMF_ATTRIBUTETYPEANDVALUE_freefunc_type(ptr noundef @OSSL_CRMF_ATTRIBUTETYPEANDVALUE_free)
  call void @OPENSSL_sk_pop_free(ptr noundef %134, ptr noundef %135)
  %136 = load ptr, ptr %7, align 8, !tbaa !34
  %137 = icmp ne ptr %136, null
  br i1 %137, label %138, label %140

138:                                              ; preds = %128
  %139 = load ptr, ptr %7, align 8, !tbaa !34
  store ptr null, ptr %139, align 8, !tbaa !36
  br label %140

140:                                              ; preds = %138, %128
  store i32 0, ptr %4, align 4
  store i32 1, ptr %9, align 4
  br label %141

141:                                              ; preds = %140, %127, %124, %49, %41, %34, %21
  call void @llvm.lifetime.end.p0(i64 8, ptr %8) #4
  %142 = load i32, ptr %4, align 4
  ret i32 %142
}