; Function Attrs: nounwind uwtable
define range(i32 0, 2) i32 @OSSL_CMP_ITAV_get1_certReqTemplate(ptr noundef readonly captures(address_is_null) %0, ptr noundef captures(address_is_null) %1, ptr noundef captures(address_is_null) %2) local_unnamed_addr #1 {
  %4 = icmp eq ptr %0, null
  %5 = icmp eq ptr %1, null
  %or.cond = or i1 %4, %5
  br i1 %or.cond, label %6, label %7

6:                                                ; preds = %3
  tail call void @ERR_new() #6
  tail call void @ERR_set_debug(ptr noundef nonnull @.str.12, i32 noundef 412, ptr noundef nonnull @__func__.OSSL_CMP_ITAV_get1_certReqTemplate) #6
  tail call void (i32, i32, ptr, ...) @ERR_set_error(i32 noundef 58, i32 noundef 103, ptr noundef null) #6
  br label %.loopexit

7:                                                ; preds = %3
  store ptr null, ptr %1, align 8, !tbaa !27
  %.not = icmp eq ptr %2, null
  br i1 %.not, label %9, label %8

8:                                                ; preds = %7
  store ptr null, ptr %2, align 8, !tbaa !28
  br label %9

9:                                                ; preds = %8, %7
  %10 = load ptr, ptr %0, align 8, !tbaa !3
  %11 = tail call i32 @OBJ_obj2nid(ptr noundef %10) #6
  %.not57 = icmp eq i32 %11, 1225
  br i1 %.not57, label %13, label %12

12:                                               ; preds = %9
  tail call void @ERR_new() #6
  tail call void @ERR_set_debug(ptr noundef nonnull @.str.12, i32 noundef 421, ptr noundef nonnull @__func__.OSSL_CMP_ITAV_get1_certReqTemplate) #6
  tail call void (i32, i32, ptr, ...) @ERR_set_error(i32 noundef 58, i32 noundef 524550, ptr noundef null) #6
  br label %.loopexit

13:                                               ; preds = %9
  %14 = getelementptr inbounds nuw i8, ptr %0, i64 8
  %15 = load ptr, ptr %14, align 8, !tbaa !9
  %16 = icmp eq ptr %15, null
  br i1 %16, label %.loopexit, label %17

17:                                               ; preds = %13
  %18 = load ptr, ptr %15, align 8, !tbaa !22
  %19 = tail call ptr @OSSL_CRMF_CERTTEMPLATE_dup(ptr noundef %18) #6
  store ptr %19, ptr %1, align 8, !tbaa !27
  %20 = icmp eq ptr %19, null
  %brmerge = or i1 %.not, %20
  %not. = xor i1 %20, true
  %.mux = zext i1 %not. to i32
  br i1 %brmerge, label %.loopexit, label %21

21:                                               ; preds = %17
  %22 = getelementptr inbounds nuw i8, ptr %15, i64 8
  %23 = load ptr, ptr %22, align 8, !tbaa !26
  %.not58 = icmp eq ptr %23, null
  br i1 %.not58, label %.loopexit, label %24

24:                                               ; preds = %21
  %25 = tail call i32 @OPENSSL_sk_num(ptr noundef nonnull %23) #6
  %26 = tail call ptr @OPENSSL_sk_new_reserve(ptr noundef null, i32 noundef %25) #6
  store ptr %26, ptr %2, align 8, !tbaa !28
  %27 = icmp eq ptr %26, null
  br i1 %27, label %.thread, label %.preheader

.preheader:                                       ; preds = %24
  %28 = icmp sgt i32 %25, 0
  br i1 %28, label %.lr.ph, label %.loopexit

.lr.ph:                                           ; preds = %.preheader, %44
  %.04769 = phi i32 [ %46, %44 ], [ 0, %.preheader ]
  %29 = load ptr, ptr %22, align 8, !tbaa !26
  %30 = tail call ptr @OPENSSL_sk_value(ptr noundef %29, i32 noundef %.04769) #6
  %31 = icmp eq ptr %30, null
  br i1 %31, label %OSSL_CMP_ATAV_get0_type.exit.thread, label %OSSL_CMP_ATAV_get0_type.exit

OSSL_CMP_ATAV_get0_type.exit:                     ; preds = %.lr.ph
  %32 = load ptr, ptr %30, align 8, !tbaa !29
  %33 = icmp eq ptr %32, null
  br i1 %33, label %OSSL_CMP_ATAV_get0_type.exit.thread, label %34

OSSL_CMP_ATAV_get0_type.exit.thread:              ; preds = %.lr.ph, %OSSL_CMP_ATAV_get0_type.exit
  tail call void @ERR_new() #6
  tail call void @ERR_set_debug(ptr noundef nonnull @.str.12, i32 noundef 443, ptr noundef nonnull @__func__.OSSL_CMP_ITAV_get1_certReqTemplate) #6
  tail call void (i32, i32, ptr, ...) @ERR_set_error(i32 noundef 58, i32 noundef 202, ptr noundef nonnull @.str.13, i32 noundef %.04769) #6
  br label %.thread

34:                                               ; preds = %OSSL_CMP_ATAV_get0_type.exit
  %35 = tail call i32 @OBJ_obj2nid(ptr noundef nonnull %32) #6
  %36 = add i32 %35, -1261
  %or.cond3 = icmp ult i32 %36, -2
  br i1 %or.cond3, label %37, label %44

37:                                               ; preds = %34
  %38 = tail call ptr @OBJ_nid2ln(i32 noundef %35) #6
  %39 = icmp eq ptr %38, null
  br i1 %39, label %40, label %42

40:                                               ; preds = %37
  %41 = tail call ptr @OBJ_nid2sn(i32 noundef %35) #6
  br label %42

42:                                               ; preds = %40, %37
  %.0 = phi ptr [ %41, %40 ], [ %38, %37 ]
  %43 = icmp eq ptr %.0, null
  %spec.store.select = select i1 %43, ptr @.str.14, ptr %.0
  tail call void @ERR_new() #6
  tail call void @ERR_set_debug(ptr noundef nonnull @.str.12, i32 noundef 457, ptr noundef nonnull @__func__.OSSL_CMP_ITAV_get1_certReqTemplate) #6
  tail call void (i32, i32, ptr, ...) @ERR_set_error(i32 noundef 58, i32 noundef 202, ptr noundef nonnull @.str.15, i32 noundef %.04769, ptr noundef nonnull %spec.store.select) #6
  br label %.thread

44:                                               ; preds = %34
  %45 = tail call i32 @OSSL_CMP_ATAV_push1(ptr noundef nonnull %2, ptr noundef nonnull %30)
  %46 = add nuw nsw i32 %.04769, 1
  %exitcond.not = icmp eq i32 %46, %25
  br i1 %exitcond.not, label %.loopexit, label %.lr.ph, !llvm.loop !31

.thread:                                          ; preds = %42, %OSSL_CMP_ATAV_get0_type.exit.thread, %24
  %47 = load ptr, ptr %1, align 8, !tbaa !27
  tail call void @OSSL_CRMF_CERTTEMPLATE_free(ptr noundef %47) #6
  store ptr null, ptr %1, align 8, !tbaa !27
  %48 = load ptr, ptr %2, align 8, !tbaa !28
  tail call void @OPENSSL_sk_pop_free(ptr noundef %48, ptr noundef nonnull @OSSL_CRMF_ATTRIBUTETYPEANDVALUE_free) #6
  store ptr null, ptr %2, align 8, !tbaa !28
  br label %.loopexit

.loopexit:                                        ; preds = %44, %.preheader, %17, %21, %13, %.thread, %12, %6
  %.045 = phi i32 [ 0, %6 ], [ 0, %12 ], [ 0, %.thread ], [ 1, %13 ], [ %.mux, %17 ], [ 1, %21 ], [ 1, %.preheader ], [ 1, %44 ]
  ret i32 %.045
}